; ModuleID = 'source-C-CXX/36/713.c'
source_filename = "source-C-CXX/36/713.c"
target datalayout = "e-m:e-p270:32:32-p271:32:32-p272:64:64-i64:64-f80:128-n8:16:32:64-S128"
target triple = "x86_64-pc-linux-gnu"

@.str = private unnamed_addr constant [3 x i8] c"%d\00", align 1
@.str.1 = private unnamed_addr constant [3 x i8] c"%s\00", align 1
@.str.2 = private unnamed_addr constant [4 x i8] c"%c\0A\00", align 1
@str = private unnamed_addr constant [3 x i8] c"no\00", align 1

; Function Attrs: nofree nounwind sspstrong uwtable
define dso_local void @main() local_unnamed_addr #0 {
  %1 = alloca i32, align 4
  %2 = alloca [100000 x i8], align 16
  %3 = bitcast i32* %1 to i8*
  call void @llvm.lifetime.start.p0i8(i64 4, i8* nonnull %3) #4
  %4 = getelementptr inbounds [100000 x i8], [100000 x i8]* %2, i64 0, i64 0
  call void @llvm.lifetime.start.p0i8(i64 100000, i8* nonnull %4) #4
  %5 = call i32 (i8*, ...) @__isoc99_scanf(i8* getelementptr inbounds ([3 x i8], [3 x i8]* @.str, i64 0, i64 0), i32* nonnull %1)
  %6 = getelementptr inbounds [100000 x i8], [100000 x i8]* %2, i64 0, i64 1
  %7 = load i32, i32* %1, align 4, !tbaa !5
  %8 = icmp sgt i32 %7, 0
  br i1 %8, label %9, label %56

9:                                                ; preds = %0, %52
  %10 = phi i32 [ %53, %52 ], [ 0, %0 ]
  %11 = call i32 (i8*, ...) @__isoc99_scanf(i8* getelementptr inbounds ([3 x i8], [3 x i8]* @.str.1, i64 0, i64 0), [100000 x i8]* nonnull %2)
  %12 = load i8, i8* %6, align 1, !tbaa !9
  %13 = icmp eq i8 %12, 0
  %14 = load i8, i8* %4, align 16
  br i1 %13, label %17, label %15

15:                                               ; preds = %9
  %16 = icmp eq i8 %14, 0
  br i1 %16, label %47, label %20

17:                                               ; preds = %9
  %18 = sext i8 %14 to i32
  %19 = call i32 (i8*, ...) @printf(i8* nonnull dereferenceable(1) getelementptr inbounds ([4 x i8], [4 x i8]* @.str.2, i64 0, i64 0), i32 %18)
  br label %52

20:                                               ; preds = %15, %42
  %21 = phi i64 [ %43, %42 ], [ 0, %15 ]
  %22 = phi i8 [ %45, %42 ], [ %14, %15 ]
  %23 = add nuw i64 %21, 1
  %24 = getelementptr inbounds [100000 x i8], [100000 x i8]* %2, i64 0, i64 %23
  br label %25

25:                                               ; preds = %20, %38
  %26 = phi i64 [ 0, %20 ], [ %40, %38 ]
  %27 = phi i8 [ %14, %20 ], [ %39, %38 ]
  %28 = icmp eq i64 %21, %26
  br i1 %28, label %29, label %31

29:                                               ; preds = %25
  %30 = load i8, i8* %24, align 1, !tbaa !9
  br label %38

31:                                               ; preds = %25
  %32 = icmp eq i8 %27, %22
  br i1 %32, label %42, label %33

33:                                               ; preds = %31
  %34 = add nuw i64 %26, 1
  %35 = getelementptr inbounds [100000 x i8], [100000 x i8]* %2, i64 0, i64 %34
  %36 = load i8, i8* %35, align 1, !tbaa !9
  %37 = icmp eq i8 %36, 0
  br i1 %37, label %49, label %38

38:                                               ; preds = %29, %33
  %39 = phi i8 [ %30, %29 ], [ %36, %33 ]
  %40 = phi i64 [ %23, %29 ], [ %34, %33 ]
  %41 = icmp eq i8 %39, 0
  br i1 %41, label %42, label %25, !llvm.loop !10

42:                                               ; preds = %31, %38
  %43 = add nuw i64 %21, 1
  %44 = getelementptr inbounds [100000 x i8], [100000 x i8]* %2, i64 0, i64 %43
  %45 = load i8, i8* %44, align 1, !tbaa !9
  %46 = icmp eq i8 %45, 0
  br i1 %46, label %47, label %20, !llvm.loop !12

47:                                               ; preds = %42, %15
  %48 = call i32 @puts(i8* nonnull dereferenceable(1) getelementptr inbounds ([3 x i8], [3 x i8]* @str, i64 0, i64 0)) #4
  br label %52

49:                                               ; preds = %33
  %50 = sext i8 %22 to i32
  %51 = call i32 (i8*, ...) @printf(i8* nonnull dereferenceable(1) getelementptr inbounds ([4 x i8], [4 x i8]* @.str.2, i64 0, i64 0), i32 %50) #4
  br label %52

52:                                               ; preds = %49, %47, %17
  %53 = add nuw nsw i32 %10, 1
  %54 = load i32, i32* %1, align 4, !tbaa !5
  %55 = icmp slt i32 %53, %54
  br i1 %55, label %9, label %56, !llvm.loop !13

56:                                               ; preds = %52, %0
  call void @llvm.lifetime.end.p0i8(i64 100000, i8* nonnull %4) #4
  call void @llvm.lifetime.end.p0i8(i64 4, i8* nonnull %3) #4
  ret void
}

; Function Attrs: argmemonly mustprogress nofree nosync nounwind willreturn
declare void @llvm.lifetime.start.p0i8(i64 immarg, i8* nocapture) #1

; Function Attrs: nofree nounwind
declare noundef i32 @__isoc99_scanf(i8* nocapture noundef readonly, ...) local_unnamed_addr #2

; Function Attrs: nofree nounwind
declare noundef i32 @printf(i8* nocapture noundef readonly, ...) local_unnamed_addr #2

; Function Attrs: nofree nounwind sspstrong uwtable
define dso_local void @yesorno(i32 %0, i8 signext %1) local_unnamed_addr #0 {
  %3 = icmp eq i32 %0, 0
  br i1 %3, label %4, label %6

4:                                                ; preds = %2
  %5 = tail call i32 @puts(i8* nonnull dereferenceable(1) getelementptr inbounds ([3 x i8], [3 x i8]* @str, i64 0, i64 0))
  br label %9

6:                                                ; preds = %2
  %7 = sext i8 %1 to i32
  %8 = tail call i32 (i8*, ...) @printf(i8* nonnull dereferenceable(1) getelementptr inbounds ([4 x i8], [4 x i8]* @.str.2, i64 0, i64 0), i32 %7)
  br label %9

9:                                                ; preds = %6, %4
  ret void
}

; Function Attrs: argmemonly mustprogress nofree nosync nounwind willreturn
declare void @llvm.lifetime.end.p0i8(i64 immarg, i8* nocapture) #1

; Function Attrs: nofree nounwind
declare noundef i32 @puts(i8* nocapture noundef readonly) local_unnamed_addr #3


!llvm.module.flags = !{!0, !1, !2, !3}
!llvm.ident = !{!4}

!0 = !{i32 1, !"wchar_size", i32 4}
!1 = !{i32 7, !"PIC Level", i32 2}
!2 = !{i32 7, !"PIE Level", i32 2}
!3 = !{i32 7, !"uwtable", i32 1}
!4 = !{!"clang version 13.0.0"}
!5 = !{!6, !6, i64 0}
!6 = !{!"int", !7, i64 0}
!7 = !{!"omnipotent char", !8, i64 0}
!8 = !{!"Simple C/C++ TBAA"}
!9 = !{!7, !7, i64 0}
!10 = distinct !{!10, !11}
!11 = !{!"llvm.loop.mustprogress"}
!12 = distinct !{!12, !11}
!13 = distinct !{!13, !11}
